; Function Attrs: mustprogress uwtable
define void @_ZN5Ipopt25PardisoMKLSolverInterfaceC2Ev(ptr noundef nonnull align 8 dereferenceable(140) %0) unnamed_addr #3 align 2 personality ptr @__gxx_personality_v0 {
  %2 = getelementptr inbounds i8, ptr %0, i64 8
  store i32 0, ptr %2, align 8
  %3 = getelementptr inbounds i8, ptr %0, i64 16
  tail call void @llvm.memset.p0.i64(ptr noundef nonnull align 8 dereferenceable(33) %3, i8 0, i64 33, i1 false)
  store ptr getelementptr inbounds ({ [14 x ptr] }, ptr @_ZTVN5Ipopt25PardisoMKLSolverInterfaceE, i64 0, i32 0, i64 2), ptr %0, align 8
  %4 = getelementptr inbounds i8, ptr %0, i64 64
  store ptr null, ptr %4, align 8
  %5 = getelementptr inbounds i8, ptr %0, i64 72
  store i32 -1, ptr %5, align 8
  %6 = getelementptr inbounds i8, ptr %0, i64 84
  store i8 0, ptr %6, align 4
  %7 = getelementptr inbounds i8, ptr %0, i64 96
  store i32 1, ptr %7, align 8
  %8 = getelementptr inbounds i8, ptr %0, i64 100
  store i32 1, ptr %8, align 4
  %9 = getelementptr inbounds i8, ptr %0, i64 104
  store i32 -2, ptr %9, align 8
  %10 = getelementptr inbounds i8, ptr %0, i64 128
  store i32 0, ptr %10, align 8
  %11 = getelementptr inbounds i8, ptr %0, i64 132
  store i32 -1, ptr %11, align 4
  %12 = invoke noalias noundef nonnull dereferenceable(512) ptr @_Znam(i64 noundef 512) #21
          to label %13 unwind label %21

13:                                               ; preds = %1
  %14 = getelementptr inbounds i8, ptr %0, i64 88
  store ptr %12, ptr %14, align 8
  %15 = invoke noalias noundef nonnull dereferenceable(256) ptr @_Znam(i64 noundef 256) #21
          to label %16 unwind label %21

16:                                               ; preds = %13
  %17 = getelementptr inbounds i8, ptr %0, i64 112
  store ptr %15, ptr %17, align 8
  %18 = invoke noalias noundef nonnull dereferenceable(512) ptr @_Znam(i64 noundef 512) #21
          to label %19 unwind label %21

19:                                               ; preds = %16
  %20 = getelementptr inbounds i8, ptr %0, i64 120
  store ptr %18, ptr %20, align 8
  ret void

21:                                               ; preds = %16, %13, %1
  %22 = landingpad { ptr, i32 }
          cleanup
  tail call void @_ZN5Ipopt23AlgorithmStrategyObjectD2Ev(ptr noundef nonnull align 8 dereferenceable(49) %0) #22
  resume { ptr, i32 } %22
}